target datalayout = "e-m:e-p270:32:32-p271:32:32-p272:64:64-i64:64-i128:128-f80:128-n8:16:32:64-S128"
target triple = "x86_64-pc-linux-gnu"

@max_wal_size_mb = dso_local global i32 1024, align 4
@wal_segment_size = dso_local global i32 16777216, align 4
@CheckPointCompletionTarget = external global double, align 8
@CheckPointSegments = dso_local global i32 0, align 4

; Function Attrs: nounwind uwtable
define internal void @CalculateCheckpointSegments() #0 {
  %1 = alloca double, align 8
  call void @llvm.lifetime.start.p0(i64 8, ptr %1) #16
  %2 = load i32, ptr @max_wal_size_mb, align 4
  %3 = load i32, ptr @wal_segment_size, align 4
  %4 = sdiv i32 %3, 1048576
  %5 = sdiv i32 %2, %4
  %6 = sitofp i32 %5 to double
  %7 = load double, ptr @CheckPointCompletionTarget, align 8
  %8 = fadd double 1.000000e+00, %7
  %9 = fdiv double %6, %8
  store double %9, ptr %1, align 8
  %10 = load double, ptr %1, align 8
  %11 = fptosi double %10 to i32
  store i32 %11, ptr @CheckPointSegments, align 4
  %12 = load i32, ptr @CheckPointSegments, align 4
  %13 = icmp slt i32 %12, 1
  br i1 %13, label %14, label %15

14:                                               ; preds = %0
  store i32 1, ptr @CheckPointSegments, align 4
  br label %15

15:                                               ; preds = %14, %0
  call void @llvm.lifetime.end.p0(i64 8, ptr %1) #16
  ret void
}

; Function Attrs: nounwind uwtable
define dso_local void @assign_max_wal_size(i32 noundef %0, ptr noundef %1) #0 {
  %3 = alloca i32, align 4
  %4 = alloca ptr, align 8
  store i32 %0, ptr %3, align 4
  store ptr %1, ptr %4, align 8
  %5 = load i32, ptr %3, align 4
  store i32 %5, ptr @max_wal_size_mb, align 4
  call void @CalculateCheckpointSegments()
  ret void
}