; Function Attrs: mustprogress nofree norecurse nosync nounwind willreturn memory(readwrite, argmem: none, inaccessiblemem: none) uwtable
define dso_local void @assign_max_wal_size(i32 noundef %0, ptr noundef readnone captures(none) %1) local_unnamed_addr #7 {
  store i32 %0, ptr @max_wal_size_mb, align 4
  %3 = load i32, ptr @wal_segment_size, align 4
  %4 = sdiv i32 %3, 1048576
  %5 = sdiv i32 %0, %4
  %6 = sitofp i32 %5 to double
  %7 = load double, ptr @CheckPointCompletionTarget, align 8
  %8 = fadd double %7, 1.000000e+00
  %9 = fdiv double %6, %8
  %10 = fptosi double %9 to i32
  %spec.store.select.i = tail call i32 @llvm.smax.i32(i32 %10, i32 1)
  store i32 %spec.store.select.i, ptr @CheckPointSegments, align 4
  ret void
}